target datalayout = "e-m:e-p270:32:32-p271:32:32-p272:64:64-i64:64-i128:128-f80:128-n8:16:32:64-S128"
target triple = "x86_64-pc-linux-gnu"

%struct.h5tools_dump_header_t = type { ptr, ptr, ptr, ptr, ptr, ptr, ptr, ptr, ptr, ptr, ptr, ptr, ptr, ptr, ptr, ptr, ptr, ptr, ptr, ptr, ptr, ptr, ptr, ptr, ptr, ptr, ptr, ptr, ptr, ptr, ptr, ptr, ptr, ptr, ptr, ptr, ptr, ptr, ptr, ptr, ptr, ptr, ptr, ptr, ptr, ptr, ptr, ptr, ptr, ptr, ptr, ptr, ptr, ptr, ptr, ptr, ptr, ptr, ptr, ptr, ptr, ptr, ptr, ptr, ptr, ptr, ptr, ptr, ptr, ptr, ptr, ptr, ptr, ptr, ptr, ptr, ptr, ptr, ptr, ptr, ptr, ptr, ptr, ptr, ptr, ptr, ptr, ptr, ptr, ptr, ptr, ptr, ptr, ptr, ptr }
%struct.h5tools_str_t = type { ptr, i64, i64 }
%struct.h5tool_format_t = type { i8, ptr, ptr, ptr, ptr, ptr, ptr, ptr, ptr, ptr, ptr, ptr, ptr, ptr, ptr, ptr, ptr, ptr, i32, i32, i32, ptr, ptr, ptr, i32, ptr, ptr, ptr, ptr, ptr, ptr, ptr, ptr, ptr, ptr, ptr, ptr, ptr, ptr, ptr, ptr, i32, i64, ptr, ptr, ptr, ptr, ptr, i32, ptr, i32, i32, ptr, i32, ptr, ptr, ptr, ptr, i32, i32 }
%struct.h5tools_context_t = type { i64, i64, i32, i32, [32 x i64], [32 x i64], i32, i64, i32, i64, i32, i32, [32 x i64], [32 x i64], i64, ptr, ptr, i32, i32 }

@.str.14 = private unnamed_addr constant [2 x i8] c"{\00", align 1
@.str.15 = private unnamed_addr constant [2 x i8] c"}\00", align 1
@.str.20 = private unnamed_addr constant [3 x i8] c"%s\00", align 1
@.str.21 = private unnamed_addr constant [2 x i8] c" \00", align 1
@h5tools_dump_header_format = global ptr null, align 8
@.str.207 = private unnamed_addr constant [13 x i8] c"%s %s %ld %s\00", align 1
@.str.208 = private unnamed_addr constant [9 x i8] c"OBJECTID\00", align 1
@.str.270 = private unnamed_addr constant [11 x i8] c"%s \22%s\22 %s\00", align 1
@.str.271 = private unnamed_addr constant [31 x i8] c"unable to open attribute \22%s\22\0A\00", align 1
@oid_output = external global i32, align 4
@data_output = external global i32, align 4
@attr_data_output = external global i32, align 4

; Function Attrs: nounwind uwtable
define void @h5tools_dump_oid(ptr noundef %0, ptr noundef %1, ptr noundef %2, i64 noundef %3) #0 {
  %5 = alloca ptr, align 8
  %6 = alloca ptr, align 8
  %7 = alloca ptr, align 8
  %8 = alloca i64, align 8
  %9 = alloca %struct.h5tools_str_t, align 8
  %10 = alloca i64, align 8
  %11 = alloca i64, align 8
  store ptr %0, ptr %5, align 8, !tbaa !8
  store ptr %1, ptr %6, align 8, !tbaa !10
  store ptr %2, ptr %7, align 8, !tbaa !12
  store i64 %3, ptr %8, align 8, !tbaa !14
  call void @llvm.lifetime.start.p0(i64 24, ptr %9) #10
  call void @llvm.lifetime.start.p0(i64 8, ptr %10) #10
  store i64 80, ptr %10, align 8, !tbaa !14
  call void @llvm.lifetime.start.p0(i64 8, ptr %11) #10
  %12 = load ptr, ptr %7, align 8, !tbaa !12
  %13 = getelementptr inbounds nuw %struct.h5tools_context_t, ptr %12, i32 0, i32 14
  %14 = load i64, ptr %13, align 8, !tbaa !26
  store i64 %14, ptr %11, align 8, !tbaa !14
  call void @llvm.memset.p0.i64(ptr align 8 %9, i8 0, i64 24, i1 false)
  %15 = load ptr, ptr %6, align 8, !tbaa !10
  %16 = getelementptr inbounds nuw %struct.h5tool_format_t, ptr %15, i32 0, i32 41
  %17 = load i32, ptr %16, align 8, !tbaa !23
  %18 = icmp ugt i32 %17, 0
  br i1 %18, label %19, label %24

19:                                               ; preds = %4
  %20 = load ptr, ptr %6, align 8, !tbaa !10
  %21 = getelementptr inbounds nuw %struct.h5tool_format_t, ptr %20, i32 0, i32 41
  %22 = load i32, ptr %21, align 8, !tbaa !23
  %23 = zext i32 %22 to i64
  store i64 %23, ptr %10, align 8, !tbaa !14
  br label %24

24:                                               ; preds = %19, %4
  %25 = load ptr, ptr %7, align 8, !tbaa !12
  %26 = getelementptr inbounds nuw %struct.h5tools_context_t, ptr %25, i32 0, i32 2
  store i32 1, ptr %26, align 8, !tbaa !46
  %27 = call ptr @h5tools_str_reset(ptr noundef %9)
  %28 = load i64, ptr %8, align 8, !tbaa !14
  %29 = call ptr (ptr, ptr, ...) @h5tools_str_append(ptr noundef %9, ptr noundef @.str.207, ptr noundef @.str.208, ptr noundef @.str.14, i64 noundef %28, ptr noundef @.str.15)
  %30 = load ptr, ptr %5, align 8, !tbaa !8
  %31 = load ptr, ptr %6, align 8, !tbaa !10
  %32 = load ptr, ptr %7, align 8, !tbaa !12
  %33 = load i64, ptr %10, align 8, !tbaa !14
  %34 = call zeroext i1 @h5tools_render_element(ptr noundef %30, ptr noundef %31, ptr noundef %32, ptr noundef %9, ptr noundef %11, i64 noundef %33, i64 noundef 0, i64 noundef 0)
  call void @h5tools_str_close(ptr noundef %9)
  call void @llvm.lifetime.end.p0(i64 8, ptr %11) #10
  call void @llvm.lifetime.end.p0(i64 8, ptr %10) #10
  call void @llvm.lifetime.end.p0(i64 24, ptr %9) #10
  ret void
}

; Function Attrs: nounwind uwtable
define void @h5tools_dump_attribute(ptr noundef %0, ptr noundef %1, ptr noundef %2, ptr noundef %3, i64 noundef %4) #0 {
  %6 = alloca ptr, align 8
  %7 = alloca ptr, align 8
  %8 = alloca ptr, align 8
  %9 = alloca ptr, align 8
  %10 = alloca i64, align 8
  %11 = alloca %struct.h5tools_str_t, align 8
  %12 = alloca i64, align 8
  %13 = alloca i64, align 8
  %14 = alloca i64, align 8
  %15 = alloca i64, align 8
  store ptr %0, ptr %6, align 8, !tbaa !8
  store ptr %1, ptr %7, align 8, !tbaa !10
  store ptr %2, ptr %8, align 8, !tbaa !12
  store ptr %3, ptr %9, align 8, !tbaa !19
  store i64 %4, ptr %10, align 8, !tbaa !14
  call void @llvm.lifetime.start.p0(i64 24, ptr %11) #10
  call void @llvm.lifetime.start.p0(i64 8, ptr %12) #10
  store i64 80, ptr %12, align 8, !tbaa !14
  call void @llvm.lifetime.start.p0(i64 8, ptr %13) #10
  %16 = load ptr, ptr %8, align 8, !tbaa !12
  %17 = getelementptr inbounds nuw %struct.h5tools_context_t, ptr %16, i32 0, i32 14
  %18 = load i64, ptr %17, align 8, !tbaa !26
  store i64 %18, ptr %13, align 8, !tbaa !14
  call void @llvm.memset.p0.i64(ptr align 8 %11, i8 0, i64 24, i1 false)
  %19 = load ptr, ptr %7, align 8, !tbaa !10
  %20 = getelementptr inbounds nuw %struct.h5tool_format_t, ptr %19, i32 0, i32 41
  %21 = load i32, ptr %20, align 8, !tbaa !23
  %22 = icmp ugt i32 %21, 0
  br i1 %22, label %23, label %28

23:                                               ; preds = %5
  %24 = load ptr, ptr %7, align 8, !tbaa !10
  %25 = getelementptr inbounds nuw %struct.h5tool_format_t, ptr %24, i32 0, i32 41
  %26 = load i32, ptr %25, align 8, !tbaa !23
  %27 = zext i32 %26 to i64
  store i64 %27, ptr %12, align 8, !tbaa !14
  br label %28

28:                                               ; preds = %23, %5
  %29 = load ptr, ptr %8, align 8, !tbaa !12
  %30 = getelementptr inbounds nuw %struct.h5tools_context_t, ptr %29, i32 0, i32 2
  store i32 1, ptr %30, align 8, !tbaa !46
  %31 = call ptr @h5tools_str_reset(ptr noundef %11)
  %32 = load ptr, ptr @h5tools_dump_header_format, align 8, !tbaa !3
  %33 = getelementptr inbounds nuw %struct.h5tools_dump_header_t, ptr %32, i32 0, i32 9
  %34 = load ptr, ptr %33, align 8, !tbaa !157
  %35 = load ptr, ptr %9, align 8, !tbaa !19
  %36 = load ptr, ptr @h5tools_dump_header_format, align 8, !tbaa !3
  %37 = getelementptr inbounds nuw %struct.h5tools_dump_header_t, ptr %36, i32 0, i32 41
  %38 = load ptr, ptr %37, align 8, !tbaa !158
  %39 = call ptr (ptr, ptr, ...) @h5tools_str_append(ptr noundef %11, ptr noundef @.str.270, ptr noundef %34, ptr noundef %35, ptr noundef %38)
  %40 = load ptr, ptr %6, align 8, !tbaa !8
  %41 = load ptr, ptr %7, align 8, !tbaa !10
  %42 = load ptr, ptr %8, align 8, !tbaa !12
  %43 = load i64, ptr %12, align 8, !tbaa !14
  %44 = call zeroext i1 @h5tools_render_element(ptr noundef %40, ptr noundef %41, ptr noundef %42, ptr noundef %11, ptr noundef %13, i64 noundef %43, i64 noundef 0, i64 noundef 0)
  %45 = load i64, ptr %10, align 8, !tbaa !14
  %46 = icmp slt i64 %45, 0
  br i1 %46, label %47, label %49

47:                                               ; preds = %28
  %48 = load ptr, ptr %9, align 8, !tbaa !19
  call void (ptr, ...) @error_msg(ptr noundef @.str.271, ptr noundef %48)
  br label %95

49:                                               ; preds = %28
  call void @llvm.lifetime.start.p0(i64 8, ptr %14) #10
  store i64 -1, ptr %14, align 8, !tbaa !14
  call void @llvm.lifetime.start.p0(i64 8, ptr %15) #10
  store i64 -1, ptr %15, align 8, !tbaa !14
  %50 = load ptr, ptr %8, align 8, !tbaa !12
  %51 = getelementptr inbounds nuw %struct.h5tools_context_t, ptr %50, i32 0, i32 10
  %52 = load i32, ptr %51, align 8, !tbaa !45
  %53 = add i32 %52, 1
  store i32 %53, ptr %51, align 8, !tbaa !45
  %54 = load i64, ptr %10, align 8, !tbaa !14
  %55 = call i64 @H5Aget_type(i64 noundef %54)
  store i64 %55, ptr %14, align 8, !tbaa !14
  %56 = load ptr, ptr %6, align 8, !tbaa !8
  %57 = load ptr, ptr %7, align 8, !tbaa !10
  %58 = load ptr, ptr %8, align 8, !tbaa !12
  %59 = load i64, ptr %14, align 8, !tbaa !14
  call void @h5tools_dump_datatype(ptr noundef %56, ptr noundef %57, ptr noundef %58, i64 noundef %59)
  %60 = load i64, ptr %10, align 8, !tbaa !14
  %61 = call i64 @H5Aget_space(i64 noundef %60)
  store i64 %61, ptr %15, align 8, !tbaa !14
  %62 = load ptr, ptr %6, align 8, !tbaa !8
  %63 = load ptr, ptr %7, align 8, !tbaa !10
  %64 = load ptr, ptr %8, align 8, !tbaa !12
  %65 = load i64, ptr %15, align 8, !tbaa !14
  call void @h5tools_dump_dataspace(ptr noundef %62, ptr noundef %63, ptr noundef %64, i64 noundef %65)
  %66 = load i32, ptr @oid_output, align 4, !tbaa !16
  %67 = icmp ne i32 %66, 0
  br i1 %67, label %68, label %73

68:                                               ; preds = %49
  %69 = load ptr, ptr %6, align 8, !tbaa !8
  %70 = load ptr, ptr %7, align 8, !tbaa !10
  %71 = load ptr, ptr %8, align 8, !tbaa !12
  %72 = load i64, ptr %10, align 8, !tbaa !14
  call void @h5tools_dump_oid(ptr noundef %69, ptr noundef %70, ptr noundef %71, i64 noundef %72)
  br label %73

73:                                               ; preds = %68, %49
  %74 = load i32, ptr @data_output, align 4, !tbaa !16
  %75 = icmp ne i32 %74, 0
  br i1 %75, label %79, label %76

76:                                               ; preds = %73
  %77 = load i32, ptr @attr_data_output, align 4, !tbaa !16
  %78 = icmp ne i32 %77, 0
  br i1 %78, label %79, label %84

79:                                               ; preds = %76, %73
  %80 = load ptr, ptr %6, align 8, !tbaa !8
  %81 = load ptr, ptr %7, align 8, !tbaa !10
  %82 = load ptr, ptr %8, align 8, !tbaa !12
  %83 = load i64, ptr %10, align 8, !tbaa !14
  call void @h5tools_dump_data(ptr noundef %80, ptr noundef %81, ptr noundef %82, i64 noundef %83, i32 noundef 0)
  br label %84

84:                                               ; preds = %79, %76
  %85 = load ptr, ptr %8, align 8, !tbaa !12
  %86 = getelementptr inbounds nuw %struct.h5tools_context_t, ptr %85, i32 0, i32 10
  %87 = load i32, ptr %86, align 8, !tbaa !45
  %88 = add i32 %87, -1
  store i32 %88, ptr %86, align 8, !tbaa !45
  %89 = load i64, ptr %14, align 8, !tbaa !14
  %90 = call i32 @H5Tclose(i64 noundef %89)
  %91 = load i64, ptr %15, align 8, !tbaa !14
  %92 = call i32 @H5Sclose(i64 noundef %91)
  %93 = load i64, ptr %10, align 8, !tbaa !14
  %94 = call i32 @H5Aclose(i64 noundef %93)
  call void @llvm.lifetime.end.p0(i64 8, ptr %15) #10
  call void @llvm.lifetime.end.p0(i64 8, ptr %14) #10
  br label %95

95:                                               ; preds = %84, %47
  %96 = load ptr, ptr %8, align 8, !tbaa !12
  %97 = getelementptr inbounds nuw %struct.h5tools_context_t, ptr %96, i32 0, i32 2
  store i32 1, ptr %97, align 8, !tbaa !46
  %98 = call ptr @h5tools_str_reset(ptr noundef %11)
  %99 = load ptr, ptr @h5tools_dump_header_format, align 8, !tbaa !3
  %100 = getelementptr inbounds nuw %struct.h5tools_dump_header_t, ptr %99, i32 0, i32 42
  %101 = load ptr, ptr %100, align 8, !tbaa !159
  %102 = call i64 @strlen(ptr noundef %101) #11
  %103 = icmp ne i64 %102, 0
  br i1 %103, label %104, label %117

104:                                              ; preds = %95
  %105 = load ptr, ptr @h5tools_dump_header_format, align 8, !tbaa !3
  %106 = getelementptr inbounds nuw %struct.h5tools_dump_header_t, ptr %105, i32 0, i32 42
  %107 = load ptr, ptr %106, align 8, !tbaa !159
  %108 = call ptr (ptr, ptr, ...) @h5tools_str_append(ptr noundef %11, ptr noundef @.str.20, ptr noundef %107)
  %109 = load ptr, ptr @h5tools_dump_header_format, align 8, !tbaa !3
  %110 = getelementptr inbounds nuw %struct.h5tools_dump_header_t, ptr %109, i32 0, i32 10
  %111 = load ptr, ptr %110, align 8, !tbaa !160
  %112 = call i64 @strlen(ptr noundef %111) #11
  %113 = icmp ne i64 %112, 0
  br i1 %113, label %114, label %116

114:                                              ; preds = %104
  %115 = call ptr (ptr, ptr, ...) @h5tools_str_append(ptr noundef %11, ptr noundef @.str.21)
  br label %116

116:                                              ; preds = %114, %104
  br label %117

117:                                              ; preds = %116, %95
  %118 = load ptr, ptr @h5tools_dump_header_format, align 8, !tbaa !3
  %119 = getelementptr inbounds nuw %struct.h5tools_dump_header_t, ptr %118, i32 0, i32 10
  %120 = load ptr, ptr %119, align 8, !tbaa !160
  %121 = call i64 @strlen(ptr noundef %120) #11
  %122 = icmp ne i64 %121, 0
  br i1 %122, label %123, label %128

123:                                              ; preds = %117
  %124 = load ptr, ptr @h5tools_dump_header_format, align 8, !tbaa !3
  %125 = getelementptr inbounds nuw %struct.h5tools_dump_header_t, ptr %124, i32 0, i32 10
  %126 = load ptr, ptr %125, align 8, !tbaa !160
  %127 = call ptr (ptr, ptr, ...) @h5tools_str_append(ptr noundef %11, ptr noundef @.str.20, ptr noundef %126)
  br label %128

128:                                              ; preds = %123, %117
  %129 = load ptr, ptr %6, align 8, !tbaa !8
  %130 = load ptr, ptr %7, align 8, !tbaa !10
  %131 = load ptr, ptr %8, align 8, !tbaa !12
  %132 = load i64, ptr %12, align 8, !tbaa !14
  %133 = call zeroext i1 @h5tools_render_element(ptr noundef %129, ptr noundef %130, ptr noundef %131, ptr noundef %11, ptr noundef %13, i64 noundef %132, i64 noundef 0, i64 noundef 0)
  call void @h5tools_str_close(ptr noundef %11)
  call void @llvm.lifetime.end.p0(i64 8, ptr %13) #10
  call void @llvm.lifetime.end.p0(i64 8, ptr %12) #10
  call void @llvm.lifetime.end.p0(i64 24, ptr %11) #10
  ret void
}