; Function Attrs: nounwind uwtable
define void @h5tools_dump_attribute(ptr noundef %0, ptr noundef %1, ptr noundef initializes((16, 20)) %2, ptr noundef %3, i64 noundef %4) local_unnamed_addr #1 {
  %6 = alloca %struct.h5tools_str_t, align 8
  %7 = alloca i64, align 8
  %8 = alloca %struct.h5tools_str_t, align 8
  %9 = alloca i64, align 8
  call void @llvm.lifetime.start.p0(i64 24, ptr nonnull %8) #12
  call void @llvm.lifetime.start.p0(i64 8, ptr nonnull %9) #12
  %10 = getelementptr inbounds nuw i8, ptr %2, i64 1088
  %11 = load i64, ptr %10, align 8, !tbaa !16
  store i64 %11, ptr %9, align 8, !tbaa !19
  call void @llvm.memset.p0.i64(ptr noundef nonnull align 8 dereferenceable(24) %8, i8 0, i64 24, i1 false)
  %12 = getelementptr inbounds nuw i8, ptr %1, i64 320
  %13 = load i32, ptr %12, align 8, !tbaa !10
  %.not = icmp eq i32 %13, 0
  %narrow = select i1 %.not, i32 80, i32 %13
  %spec.select = zext i32 %narrow to i64
  %14 = getelementptr inbounds nuw i8, ptr %2, i64 16
  store i32 1, ptr %14, align 8, !tbaa !35
  %15 = call ptr @h5tools_str_reset(ptr noundef nonnull %8) #12
  %16 = load ptr, ptr @h5tools_dump_header_format, align 8, !tbaa !3
  %17 = getelementptr inbounds nuw i8, ptr %16, i64 72
  %18 = load ptr, ptr %17, align 8, !tbaa !155
  %19 = getelementptr inbounds nuw i8, ptr %16, i64 328
  %20 = load ptr, ptr %19, align 8, !tbaa !156
  %21 = call ptr (ptr, ptr, ...) @h5tools_str_append(ptr noundef nonnull %8, ptr noundef nonnull @.str.270, ptr noundef %18, ptr noundef %3, ptr noundef %20) #12
  %22 = call zeroext i1 @h5tools_render_element(ptr noundef %0, ptr noundef %1, ptr noundef %2, ptr noundef nonnull %8, ptr noundef nonnull %9, i64 noundef %spec.select, i64 noundef 0, i64 noundef 0) #12
  %23 = icmp slt i64 %4, 0
  br i1 %23, label %24, label %25

24:                                               ; preds = %5
  call void (ptr, ...) @error_msg(ptr noundef nonnull @.str.271, ptr noundef %3) #12
  br label %50

25:                                               ; preds = %5
  %26 = getelementptr inbounds nuw i8, ptr %2, i64 568
  %27 = load i32, ptr %26, align 8, !tbaa !34
  %28 = add i32 %27, 1
  store i32 %28, ptr %26, align 8, !tbaa !34
  %29 = call i64 @H5Aget_type(i64 noundef %4) #12
  call void @h5tools_dump_datatype(ptr noundef %0, ptr noundef nonnull %1, ptr noundef nonnull %2, i64 noundef %29)
  %30 = call i64 @H5Aget_space(i64 noundef %4) #12
  call void @h5tools_dump_dataspace(ptr noundef %0, ptr noundef nonnull %1, ptr noundef nonnull %2, i64 noundef %30)
  %31 = load i32, ptr @oid_output, align 4, !tbaa !8
  %.not41 = icmp eq i32 %31, 0
  br i1 %.not41, label %38, label %32

32:                                               ; preds = %25
  call void @llvm.lifetime.start.p0(i64 24, ptr nonnull %6) #12
  call void @llvm.lifetime.start.p0(i64 8, ptr nonnull %7) #12
  %33 = load i64, ptr %10, align 8, !tbaa !16
  store i64 %33, ptr %7, align 8, !tbaa !19
  call void @llvm.memset.p0.i64(ptr noundef nonnull align 8 dereferenceable(24) %6, i8 0, i64 24, i1 false)
  %34 = load i32, ptr %12, align 8, !tbaa !10
  %.not.i = icmp eq i32 %34, 0
  %narrow.i = select i1 %.not.i, i32 80, i32 %34
  %spec.select.i = zext i32 %narrow.i to i64
  store i32 1, ptr %14, align 8, !tbaa !35
  %35 = call ptr @h5tools_str_reset(ptr noundef nonnull %6) #12
  %36 = call ptr (ptr, ptr, ...) @h5tools_str_append(ptr noundef nonnull %6, ptr noundef nonnull @.str.207, ptr noundef nonnull @.str.208, ptr noundef nonnull @.str.14, i64 noundef %4, ptr noundef nonnull @.str.15) #12
  %37 = call zeroext i1 @h5tools_render_element(ptr noundef %0, ptr noundef nonnull %1, ptr noundef nonnull %2, ptr noundef nonnull %6, ptr noundef nonnull %7, i64 noundef %spec.select.i, i64 noundef 0, i64 noundef 0) #12
  call void @h5tools_str_close(ptr noundef nonnull %6) #12
  call void @llvm.lifetime.end.p0(i64 8, ptr nonnull %7) #12
  call void @llvm.lifetime.end.p0(i64 24, ptr nonnull %6) #12
  br label %38

38:                                               ; preds = %32, %25
  %39 = load i32, ptr @data_output, align 4, !tbaa !8
  %40 = icmp ne i32 %39, 0
  %41 = load i32, ptr @attr_data_output, align 4
  %42 = icmp ne i32 %41, 0
  %or.cond = select i1 %40, i1 true, i1 %42
  br i1 %or.cond, label %43, label %44

43:                                               ; preds = %38
  call void @h5tools_dump_data(ptr noundef %0, ptr noundef nonnull %1, ptr noundef nonnull %2, i64 noundef %4, i32 noundef 0)
  br label %44

44:                                               ; preds = %38, %43
  %45 = load i32, ptr %26, align 8, !tbaa !34
  %46 = add i32 %45, -1
  store i32 %46, ptr %26, align 8, !tbaa !34
  %47 = call i32 @H5Tclose(i64 noundef %29) #12
  %48 = call i32 @H5Sclose(i64 noundef %30) #12
  %49 = call i32 @H5Aclose(i64 noundef %4) #12
  br label %50

50:                                               ; preds = %44, %24
  store i32 1, ptr %14, align 8, !tbaa !35
  %51 = call ptr @h5tools_str_reset(ptr noundef nonnull %8) #12
  %52 = load ptr, ptr @h5tools_dump_header_format, align 8, !tbaa !3
  %53 = getelementptr inbounds nuw i8, ptr %52, i64 336
  %54 = load ptr, ptr %53, align 8, !tbaa !157
  %char0 = load i8, ptr %54, align 1
  %.not42 = icmp eq i8 %char0, 0
  br i1 %.not42, label %62, label %55

55:                                               ; preds = %50
  %56 = call ptr (ptr, ptr, ...) @h5tools_str_append(ptr noundef nonnull %8, ptr noundef nonnull @.str.20, ptr noundef nonnull %54) #12
  %57 = load ptr, ptr @h5tools_dump_header_format, align 8, !tbaa !3
  %58 = getelementptr inbounds nuw i8, ptr %57, i64 80
  %59 = load ptr, ptr %58, align 8, !tbaa !158
  %char043 = load i8, ptr %59, align 1
  %.not44 = icmp eq i8 %char043, 0
  br i1 %.not44, label %62, label %60

60:                                               ; preds = %55
  %61 = call ptr (ptr, ptr, ...) @h5tools_str_append(ptr noundef nonnull %8, ptr noundef nonnull @.str.21) #12
  %.pre = load ptr, ptr @h5tools_dump_header_format, align 8, !tbaa !3
  br label %62

62:                                               ; preds = %55, %60, %50
  %63 = phi ptr [ %57, %55 ], [ %.pre, %60 ], [ %52, %50 ]
  %64 = getelementptr inbounds nuw i8, ptr %63, i64 80
  %65 = load ptr, ptr %64, align 8, !tbaa !158
  %char045 = load i8, ptr %65, align 1
  %.not46 = icmp eq i8 %char045, 0
  br i1 %.not46, label %68, label %66

66:                                               ; preds = %62
  %67 = call ptr (ptr, ptr, ...) @h5tools_str_append(ptr noundef nonnull %8, ptr noundef nonnull @.str.20, ptr noundef nonnull %65) #12
  br label %68

68:                                               ; preds = %66, %62
  %69 = call zeroext i1 @h5tools_render_element(ptr noundef %0, ptr noundef nonnull %1, ptr noundef nonnull %2, ptr noundef nonnull %8, ptr noundef nonnull %9, i64 noundef %spec.select, i64 noundef 0, i64 noundef 0) #12
  call void @h5tools_str_close(ptr noundef nonnull %8) #12
  call void @llvm.lifetime.end.p0(i64 8, ptr nonnull %9) #12
  call void @llvm.lifetime.end.p0(i64 24, ptr nonnull %8) #12
  ret void
}